target datalayout = "e-m:e-p270:32:32-p271:32:32-p272:64:64-i64:64-i128:128-f80:128-n8:16:32:64-S128"
target triple = "x86_64-pc-linux-gnu"

%struct.job_record = type { i32, ptr, ptr, ptr, ptr, i16, i32, i32, i32, ptr, i32, ptr, ptr, i16, ptr, double, i64, ptr, ptr, ptr, ptr, ptr, ptr, i32, ptr, i32, i64, i64, i32, i32, ptr, i16, i64, i64, i8, i32, ptr, ptr, ptr, ptr, ptr, ptr, ptr, ptr, i32, ptr, ptr, i32, ptr, i32, ptr, i32, ptr, i32, ptr, ptr, ptr, ptr, ptr, ptr, i32, i16, i64, ptr, ptr, ptr, ptr, %struct.acct_policy_limit_set_t, i16, ptr, ptr, ptr, ptr, ptr, i32, ptr, ptr, ptr, ptr, ptr, i32, i32, ptr, ptr, ptr, i16, ptr, ptr, i8, ptr, ptr, i64, i64, i8, i32, i32, i8, i32, ptr, i32, i64, i32, ptr, ptr, ptr, i8, i16, i64, i32, ptr, ptr, ptr, ptr, ptr, i16, i32, ptr, ptr, ptr, ptr, i32, ptr, i32, i16, i64, ptr, i32, i32, ptr, i64, ptr, ptr, i64, i32, i32, i64, i32, i32, ptr, ptr, ptr, ptr, ptr, ptr, ptr, ptr, ptr, ptr, ptr, ptr, i32, ptr, i16, i16, i16, i16, ptr, i32, i32, i8, i64 }
%struct.acct_policy_limit_set_t = type { i16, i16, ptr }

@.str.43 = private unnamed_addr constant [29 x i8] c"%s: Bad het_job_list for %pJ\00", align 1
@__func__._job_requeue = private unnamed_addr constant [13 x i8] c"_job_requeue\00", align 1

; Function Attrs: nounwind uwtable
define internal i32 @_job_requeue(i32 noundef %0, ptr noundef %1, i1 noundef zeroext %2, i32 noundef %3) #0 {
  %5 = alloca i32, align 4
  %6 = alloca i32, align 4
  %7 = alloca ptr, align 8
  %8 = alloca i8, align 1
  %9 = alloca i32, align 4
  %10 = alloca ptr, align 8
  %11 = alloca i32, align 4
  %12 = alloca i32, align 4
  %13 = alloca ptr, align 8
  %14 = alloca i32, align 4
  store i32 %0, ptr %6, align 4
  store ptr %1, ptr %7, align 8
  %15 = zext i1 %2 to i8
  store i8 %15, ptr %8, align 1
  store i32 %3, ptr %9, align 4
  call void @llvm.lifetime.start.p0(i64 8, ptr %10) #13
  call void @llvm.lifetime.start.p0(i64 4, ptr %11) #13
  store i32 0, ptr %11, align 4
  call void @llvm.lifetime.start.p0(i64 4, ptr %12) #13
  call void @llvm.lifetime.start.p0(i64 8, ptr %13) #13
  %16 = load ptr, ptr %7, align 8
  %17 = getelementptr inbounds nuw %struct.job_record, ptr %16, i32 0, i32 49
  %18 = load i32, ptr %17, align 8
  %19 = icmp ne i32 %18, 0
  br i1 %19, label %20, label %26

20:                                               ; preds = %4
  %21 = load ptr, ptr %7, align 8
  %22 = getelementptr inbounds nuw %struct.job_record, ptr %21, i32 0, i32 52
  %23 = load ptr, ptr %22, align 8
  %24 = icmp ne ptr %23, null
  br i1 %24, label %26, label %25

25:                                               ; preds = %20
  store i32 2107, ptr %5, align 4
  store i32 1, ptr %14, align 4
  br label %74

26:                                               ; preds = %20, %4
  %27 = load ptr, ptr %7, align 8
  %28 = getelementptr inbounds nuw %struct.job_record, ptr %27, i32 0, i32 52
  %29 = load ptr, ptr %28, align 8
  %30 = icmp ne ptr %29, null
  br i1 %30, label %31, label %65

31:                                               ; preds = %26
  %32 = load ptr, ptr %7, align 8
  %33 = getelementptr inbounds nuw %struct.job_record, ptr %32, i32 0, i32 52
  %34 = load ptr, ptr %33, align 8
  %35 = call ptr @list_iterator_create(ptr noundef %34)
  store ptr %35, ptr %13, align 8
  br label %36

36:                                               ; preds = %62, %48, %31
  %37 = load ptr, ptr %13, align 8
  %38 = call ptr @list_next(ptr noundef %37)
  store ptr %38, ptr %10, align 8
  %39 = icmp ne ptr %38, null
  br i1 %39, label %40, label %63

40:                                               ; preds = %36
  %41 = load ptr, ptr %7, align 8
  %42 = getelementptr inbounds nuw %struct.job_record, ptr %41, i32 0, i32 49
  %43 = load i32, ptr %42, align 8
  %44 = load ptr, ptr %10, align 8
  %45 = getelementptr inbounds nuw %struct.job_record, ptr %44, i32 0, i32 49
  %46 = load i32, ptr %45, align 8
  %47 = icmp ne i32 %43, %46
  br i1 %47, label %48, label %51

48:                                               ; preds = %40
  %49 = load ptr, ptr %7, align 8
  %50 = call i32 (ptr, ...) @error(ptr noundef @.str.43, ptr noundef @__func__._job_requeue, ptr noundef %49)
  br label %36, !llvm.loop !92

51:                                               ; preds = %40
  %52 = load i32, ptr %6, align 4
  %53 = load ptr, ptr %10, align 8
  %54 = load i8, ptr %8, align 1, !range !8, !noundef !9
  %55 = trunc i8 %54 to i1
  %56 = load i32, ptr %9, align 4
  %57 = call i32 @_job_requeue_op(i32 noundef %52, ptr noundef %53, i1 noundef zeroext %55, i32 noundef %56)
  store i32 %57, ptr %12, align 4
  %58 = load i32, ptr %12, align 4
  %59 = icmp ne i32 %58, 0
  br i1 %59, label %60, label %62

60:                                               ; preds = %51
  %61 = load i32, ptr %12, align 4
  store i32 %61, ptr %11, align 4
  br label %62

62:                                               ; preds = %60, %51
  br label %36, !llvm.loop !92

63:                                               ; preds = %36
  %64 = load ptr, ptr %13, align 8
  call void @list_iterator_destroy(ptr noundef %64)
  br label %72

65:                                               ; preds = %26
  %66 = load i32, ptr %6, align 4
  %67 = load ptr, ptr %7, align 8
  %68 = load i8, ptr %8, align 1, !range !8, !noundef !9
  %69 = trunc i8 %68 to i1
  %70 = load i32, ptr %9, align 4
  %71 = call i32 @_job_requeue_op(i32 noundef %66, ptr noundef %67, i1 noundef zeroext %69, i32 noundef %70)
  store i32 %71, ptr %11, align 4
  br label %72

72:                                               ; preds = %65, %63
  %73 = load i32, ptr %11, align 4
  store i32 %73, ptr %5, align 4
  store i32 1, ptr %14, align 4
  br label %74

74:                                               ; preds = %72, %25
  call void @llvm.lifetime.end.p0(i64 8, ptr %13) #13
  call void @llvm.lifetime.end.p0(i64 4, ptr %12) #13
  call void @llvm.lifetime.end.p0(i64 4, ptr %11) #13
  call void @llvm.lifetime.end.p0(i64 8, ptr %10) #13
  %75 = load i32, ptr %5, align 4
  ret i32 %75
}