; Function Attrs: nounwind uwtable
define internal fastcc i32 @_job_requeue(i32 noundef %0, ptr noundef nonnull %1, i1 noundef zeroext %2, i32 noundef %3) unnamed_addr #0 {
  %5 = getelementptr inbounds nuw i8, ptr %1, i64 360
  %6 = load i32, ptr %5, align 8
  %.not = icmp eq i32 %6, 0
  %.phi.trans.insert = getelementptr inbounds nuw i8, ptr %1, i64 384
  %.pre = load ptr, ptr %.phi.trans.insert, align 8
  %.not25 = icmp eq ptr %.pre, null
  br i1 %.not, label %8, label %7

7:                                                ; preds = %4
  br i1 %.not25, label %24, label %.thread

8:                                                ; preds = %4
  br i1 %.not25, label %22, label %.thread

.thread:                                          ; preds = %7, %8
  %9 = tail call ptr @list_iterator_create(ptr noundef nonnull %.pre) #27
  %10 = tail call ptr @list_next(ptr noundef %9) #27
  %.not263032 = icmp eq ptr %10, null
  br i1 %.not263032, label %.outer._crit_edge, label %.lr.ph

.lr.ph:                                           ; preds = %.thread, %.outer
  %11 = phi ptr [ %21, %.outer ], [ %10, %.thread ]
  %.020.ph33 = phi i32 [ %spec.select, %.outer ], [ 0, %.thread ]
  br label %12

12:                                               ; preds = %.lr.ph, %17
  %13 = phi ptr [ %11, %.lr.ph ], [ %19, %17 ]
  %14 = load i32, ptr %5, align 8
  %15 = getelementptr inbounds nuw i8, ptr %13, i64 360
  %16 = load i32, ptr %15, align 8
  %.not27 = icmp eq i32 %14, %16
  br i1 %.not27, label %.outer, label %17

17:                                               ; preds = %12
  %18 = tail call i32 (ptr, ...) @error(ptr noundef nonnull @.str.43, ptr noundef nonnull @__func__._job_requeue, ptr noundef nonnull %1) #27
  %19 = tail call ptr @list_next(ptr noundef %9) #27
  %.not26 = icmp eq ptr %19, null
  br i1 %.not26, label %.outer._crit_edge, label %12, !llvm.loop !98

.outer:                                           ; preds = %12
  %20 = tail call fastcc i32 @_job_requeue_op(i32 noundef %0, ptr noundef %13, i1 noundef zeroext %2, i32 noundef %3)
  %.not28 = icmp eq i32 %20, 0
  %spec.select = select i1 %.not28, i32 %.020.ph33, i32 %20
  %21 = tail call ptr @list_next(ptr noundef %9) #27
  %.not2630 = icmp eq ptr %21, null
  br i1 %.not2630, label %.outer._crit_edge, label %.lr.ph, !llvm.loop !98

.outer._crit_edge:                                ; preds = %.outer, %17, %.thread
  %.020.ph.lcssa = phi i32 [ 0, %.thread ], [ %.020.ph33, %17 ], [ %spec.select, %.outer ]
  tail call void @list_iterator_destroy(ptr noundef %9) #27
  br label %24

22:                                               ; preds = %8
  %23 = tail call fastcc i32 @_job_requeue_op(i32 noundef %0, ptr noundef %1, i1 noundef zeroext %2, i32 noundef %3)
  br label %24

24:                                               ; preds = %.outer._crit_edge, %22, %7
  %.0 = phi i32 [ 2107, %7 ], [ %.020.ph.lcssa, %.outer._crit_edge ], [ %23, %22 ]
  ret i32 %.0
}